	.section	__TEXT,__text,regular,pure_instructions
	.build_version macos, 13, 0	sdk_version 13, 0
	.globl	_dump_sz                        ; -- Begin function dump_sz
	.p2align	2
_dump_sz:                               ; @dump_sz
Lfunc_begin0:
	.file	1 "/Users/vincent/Temp/c_examples" "sizeof_test.c"
	.loc	1 15 0                          ; sizeof_test.c:15:0
	.cfi_startproc
; %bb.0:
	sub	sp, sp, #64
	stp	x29, x30, [sp, #48]             ; 16-byte Folded Spill
	add	x29, sp, #48
	.cfi_def_cfa w29, 16
	.cfi_offset w30, -8
	.cfi_offset w29, -16
	stur	x0, [x29, #-8]
Ltmp0:
	.loc	1 16 59 prologue_end            ; sizeof_test.c:16:59
	ldur	x8, [x29, #-8]
	.loc	1 16 5 is_stmt 0                ; sizeof_test.c:16:5
	mov	x9, sp
	mov	x10, #8
	str	x10, [sp, #24]                  ; 8-byte Folded Spill
	str	x10, [x9]
	str	x8, [x9, #8]
	.loc	1 0 0                           ; sizeof_test.c:0:0
	adrp	x0, l_.str@PAGE
	add	x0, x0, l_.str@PAGEOFF
	.loc	1 16 5                          ; sizeof_test.c:16:5
	bl	_printf
	ldr	x10, [sp, #24]                  ; 8-byte Folded Reload
	.loc	1 17 69 is_stmt 1               ; sizeof_test.c:17:69
	ldur	x8, [x29, #-8]
	.loc	1 17 5 is_stmt 0                ; sizeof_test.c:17:5
	mov	x9, sp
	str	x10, [x9]
	str	x8, [x9, #8]
	.loc	1 0 0                           ; sizeof_test.c:0:0
	adrp	x0, l_.str.1@PAGE
	add	x0, x0, l_.str.1@PAGEOFF
	.loc	1 17 5                          ; sizeof_test.c:17:5
	bl	_printf
	ldr	x10, [sp, #24]                  ; 8-byte Folded Reload
	.loc	1 18 90 is_stmt 1               ; sizeof_test.c:18:90
	ldur	x8, [x29, #-8]
	.loc	1 18 94 is_stmt 0               ; sizeof_test.c:18:94
	ldr	x8, [x8]
	.loc	1 18 5                          ; sizeof_test.c:18:5
	mov	x9, sp
	str	x10, [x9]
	str	x8, [x9, #8]
	.loc	1 0 0                           ; sizeof_test.c:0:0
	adrp	x0, l_.str.2@PAGE
	add	x0, x0, l_.str.2@PAGEOFF
	.loc	1 18 5                          ; sizeof_test.c:18:5
	bl	_printf
	.loc	1 19 82 is_stmt 1               ; sizeof_test.c:19:82
	ldur	x8, [x29, #-8]
	.loc	1 19 86 is_stmt 0               ; sizeof_test.c:19:86
	ldr	x8, [x8]
	.loc	1 19 91                         ; sizeof_test.c:19:91
	add	x8, x8, #8
	.loc	1 19 5                          ; sizeof_test.c:19:5
	mov	x9, sp
	mov	x10, #4
	stur	x10, [x29, #-16]                ; 8-byte Folded Spill
	str	x10, [x9]
	str	x8, [x9, #8]
	.loc	1 0 0                           ; sizeof_test.c:0:0
	adrp	x0, l_.str.3@PAGE
	add	x0, x0, l_.str.3@PAGEOFF
	.loc	1 19 5                          ; sizeof_test.c:19:5
	bl	_printf
	ldr	x10, [sp, #24]                  ; 8-byte Folded Reload
	.loc	1 20 71 is_stmt 1               ; sizeof_test.c:20:71
	ldur	x8, [x29, #-8]
	.loc	1 20 75 is_stmt 0               ; sizeof_test.c:20:75
	add	x8, x8, #8
	.loc	1 20 5                          ; sizeof_test.c:20:5
	mov	x9, sp
	str	x10, [x9]
	str	x8, [x9, #8]
	.loc	1 0 0                           ; sizeof_test.c:0:0
	adrp	x0, l_.str.4@PAGE
	add	x0, x0, l_.str.4@PAGEOFF
	.loc	1 20 5                          ; sizeof_test.c:20:5
	bl	_printf
	ldr	x10, [sp, #24]                  ; 8-byte Folded Reload
	.loc	1 21 91 is_stmt 1               ; sizeof_test.c:21:91
	ldur	x8, [x29, #-8]
	.loc	1 21 95 is_stmt 0               ; sizeof_test.c:21:95
	add	x8, x8, #16
	.loc	1 21 5                          ; sizeof_test.c:21:5
	mov	x9, sp
	str	x10, [x9]
	str	x8, [x9, #8]
	.loc	1 0 0                           ; sizeof_test.c:0:0
	adrp	x0, l_.str.5@PAGE
	add	x0, x0, l_.str.5@PAGEOFF
	.loc	1 21 5                          ; sizeof_test.c:21:5
	bl	_printf
	ldur	x10, [x29, #-16]                ; 8-byte Folded Reload
	.loc	1 22 79 is_stmt 1               ; sizeof_test.c:22:79
	ldur	x8, [x29, #-8]
	.loc	1 22 83 is_stmt 0               ; sizeof_test.c:22:83
	add	x8, x8, #24
	.loc	1 22 5                          ; sizeof_test.c:22:5
	mov	x9, sp
	str	x10, [x9]
	str	x8, [x9, #8]
	.loc	1 0 0                           ; sizeof_test.c:0:0
	adrp	x0, l_.str.6@PAGE
	add	x0, x0, l_.str.6@PAGEOFF
	.loc	1 22 5                          ; sizeof_test.c:22:5
	bl	_printf
	.loc	1 23 1 is_stmt 1                ; sizeof_test.c:23:1
	ldp	x29, x30, [sp, #48]             ; 16-byte Folded Reload
	add	sp, sp, #64
	ret
Ltmp1:
Lfunc_end0:
	.cfi_endproc
                                        ; -- End function
	.globl	_dump_offset                    ; -- Begin function dump_offset
	.p2align	2
_dump_offset:                           ; @dump_offset
Lfunc_begin1:
	.loc	1 25 0                          ; sizeof_test.c:25:0
	.cfi_startproc
; %bb.0:
	sub	sp, sp, #32
	stp	x29, x30, [sp, #16]             ; 16-byte Folded Spill
	add	x29, sp, #16
	.cfi_def_cfa w29, 16
	.cfi_offset w30, -8
	.cfi_offset w29, -16
Ltmp2:
	.loc	1 26 5 prologue_end             ; sizeof_test.c:26:5
	mov	x8, sp
	str	xzr, [x8]
	.loc	1 0 0 is_stmt 0                 ; sizeof_test.c:0:0
	adrp	x0, l_.str.7@PAGE
	add	x0, x0, l_.str.7@PAGEOFF
	.loc	1 26 5                          ; sizeof_test.c:26:5
	bl	_printf
	.loc	1 27 5 is_stmt 1                ; sizeof_test.c:27:5
	mov	x8, sp
	str	xzr, [x8]
	.loc	1 0 0 is_stmt 0                 ; sizeof_test.c:0:0
	adrp	x0, l_.str.8@PAGE
	add	x0, x0, l_.str.8@PAGEOFF
	.loc	1 27 5                          ; sizeof_test.c:27:5
	bl	_printf
	.loc	1 28 5 is_stmt 1                ; sizeof_test.c:28:5
	mov	x9, sp
	mov	x8, #8
	str	x8, [sp, #8]                    ; 8-byte Folded Spill
	str	x8, [x9]
	.loc	1 0 0 is_stmt 0                 ; sizeof_test.c:0:0
	adrp	x0, l_.str.9@PAGE
	add	x0, x0, l_.str.9@PAGEOFF
	.loc	1 28 5                          ; sizeof_test.c:28:5
	bl	_printf
	ldr	x8, [sp, #8]                    ; 8-byte Folded Reload
	.loc	1 29 5 is_stmt 1                ; sizeof_test.c:29:5
	mov	x9, sp
	str	x8, [x9]
	.loc	1 0 0 is_stmt 0                 ; sizeof_test.c:0:0
	adrp	x0, l_.str.10@PAGE
	add	x0, x0, l_.str.10@PAGEOFF
	.loc	1 29 5                          ; sizeof_test.c:29:5
	bl	_printf
	.loc	1 30 5 is_stmt 1                ; sizeof_test.c:30:5
	mov	x9, sp
	mov	x8, #16
	str	x8, [x9]
	.loc	1 0 0 is_stmt 0                 ; sizeof_test.c:0:0
	adrp	x0, l_.str.11@PAGE
	add	x0, x0, l_.str.11@PAGEOFF
	.loc	1 30 5                          ; sizeof_test.c:30:5
	bl	_printf
	.loc	1 31 5 is_stmt 1                ; sizeof_test.c:31:5
	mov	x9, sp
	mov	x8, #24
	str	x8, [x9]
	.loc	1 0 0 is_stmt 0                 ; sizeof_test.c:0:0
	adrp	x0, l_.str.12@PAGE
	add	x0, x0, l_.str.12@PAGEOFF
	.loc	1 31 5                          ; sizeof_test.c:31:5
	bl	_printf
	.loc	1 32 1 is_stmt 1                ; sizeof_test.c:32:1
	ldp	x29, x30, [sp, #16]             ; 16-byte Folded Reload
	add	sp, sp, #32
	ret
Ltmp3:
Lfunc_end1:
	.cfi_endproc
                                        ; -- End function
	.globl	_main                           ; -- Begin function main
	.p2align	2
_main:                                  ; @main
Lfunc_begin2:
	.loc	1 35 0                          ; sizeof_test.c:35:0
	.cfi_startproc
; %bb.0:
	sub	sp, sp, #80
	stp	x29, x30, [sp, #64]             ; 16-byte Folded Spill
	add	x29, sp, #64
	.cfi_def_cfa w29, 16
	.cfi_offset w30, -8
	.cfi_offset w29, -16
	mov	w8, #0
	str	w8, [sp, #4]                    ; 4-byte Folded Spill
	stur	wzr, [x29, #-4]
	add	x8, sp, #8
Ltmp4:
	.loc	1 0 0 is_stmt 0                 ; sizeof_test.c:0:0
	adrp	x9, l_.str.13@PAGE
	add	x9, x9, l_.str.13@PAGEOFF
	.loc	1 38 17 prologue_end is_stmt 1  ; sizeof_test.c:38:17
	str	x9, [sp, #8]
	mov	w9, #1
	.loc	1 39 13                         ; sizeof_test.c:39:13
	str	w9, [sp, #16]
	add	x0, sp, #24
	.loc	1 40 12                         ; sizeof_test.c:40:12
	str	x8, [sp, #24]
	.loc	1 0 0 is_stmt 0                 ; sizeof_test.c:0:0
	adrp	x8, l_.str.14@PAGE
	add	x8, x8, l_.str.14@PAGEOFF
	.loc	1 41 13 is_stmt 1               ; sizeof_test.c:41:13
	str	x8, [sp, #32]
	mov	x8, #17
	.loc	1 42 23                         ; sizeof_test.c:42:23
	str	x8, [sp, #40]
	mov	w8, #1024
	.loc	1 43 17                         ; sizeof_test.c:43:17
	str	w8, [sp, #48]
	.loc	1 44 5                          ; sizeof_test.c:44:5
	bl	_dump_sz
	.loc	1 45 5                          ; sizeof_test.c:45:5
	bl	_dump_offset
	ldr	w0, [sp, #4]                    ; 4-byte Folded Reload
	.loc	1 46 5                          ; sizeof_test.c:46:5
	ldp	x29, x30, [sp, #64]             ; 16-byte Folded Reload
	add	sp, sp, #80
	ret
Ltmp5:
Lfunc_end2:
	.cfi_endproc
                                        ; -- End function
	.section	__TEXT,__cstring,cstring_literals
l_.str:                                 ; @.str
	.asciz	"sizeof my_struct:%lu, addr:%p\n"

l_.str.1:                               ; @.str.1
	.asciz	"sizeof my_struct sub:%lu, addr:%p\n"

l_.str.2:                               ; @.str.2
	.asciz	"  sizeof my_struct sub/sub_name:%lu, addr:%p\n"

l_.str.3:                               ; @.str.3
	.asciz	"  sizeof my_struct sub/flag:%lu, addr:%p\n"

l_.str.4:                               ; @.str.4
	.asciz	"sizeof my_struct name:%lu, addr:%p\n"

l_.str.5:                               ; @.str.5
	.asciz	"sizeof my_struct sizeof_message:%lu, addr:%p\n"

l_.str.6:                               ; @.str.6
	.asciz	"sizeof my_struct n_fields:%lu, addr:%p\n"

l_.str.7:                               ; @.str.7
	.asciz	"my_sub_struct->sub offset:%lu\n"

l_.str.8:                               ; @.str.8
	.asciz	"  my_sub_struct->sub->sub_name offset:%lu\n"

l_.str.9:                               ; @.str.9
	.asciz	"  my_sub_struct->sub->flag offset:%lu\n"

l_.str.10:                              ; @.str.10
	.asciz	"my_sub_struct->name offset:%lu\n"

l_.str.11:                              ; @.str.11
	.asciz	"my_sub_struct->sizeof_message offset:%lu\n"

l_.str.12:                              ; @.str.12
	.asciz	"my_sub_struct->n_fields offset:%lu\n"

l_.str.13:                              ; @.str.13
	.asciz	"hi"

l_.str.14:                              ; @.str.14
	.asciz	"hello world"

	.file	2 "/Applications/Xcode.app/Contents/Developer/Platforms/MacOSX.platform/Developer/SDKs/MacOSX.sdk/usr/include/arm" "_types.h"
	.file	3 "/Applications/Xcode.app/Contents/Developer/Platforms/MacOSX.platform/Developer/SDKs/MacOSX.sdk/usr/include/sys/_types" "_size_t.h"